target datalayout = "e-m:e-p270:32:32-p271:32:32-p272:64:64-i64:64-i128:128-f80:128-n8:16:32:64-S128"
target triple = "x86_64-pc-linux-gnu"

@.str = private unnamed_addr constant [122 x i8] c"generated/home/dtcxzyw/WorkSpace/Projects/compilers/llvm-opt-benchmark/bench/libquic/libquic/boringssl/crypto/conf/conf.c\00", align 1
@.str.1 = private unnamed_addr constant [3 x i8] c"rb\00", align 1

; Function Attrs: nounwind uwtable
define hidden i32 @NCONF_load(ptr noundef %0, ptr noundef %1, ptr noundef %2) #0 {
  %4 = alloca i32, align 4
  %5 = alloca ptr, align 8
  %6 = alloca ptr, align 8
  %7 = alloca ptr, align 8
  %8 = alloca ptr, align 8
  %9 = alloca i32, align 4
  %10 = alloca i32, align 4
  store ptr %0, ptr %5, align 8, !tbaa !10
  store ptr %1, ptr %6, align 8, !tbaa !23
  store ptr %2, ptr %7, align 8, !tbaa !25
  call void @llvm.lifetime.start.p0(i64 8, ptr %8) #8
  %11 = load ptr, ptr %6, align 8, !tbaa !23
  %12 = call ptr @BIO_new_file(ptr noundef %11, ptr noundef @.str.1)
  store ptr %12, ptr %8, align 8, !tbaa !27
  call void @llvm.lifetime.start.p0(i64 4, ptr %9) #8
  %13 = load ptr, ptr %8, align 8, !tbaa !27
  %14 = icmp eq ptr %13, null
  br i1 %14, label %15, label %16

15:                                               ; preds = %3
  call void @ERR_put_error(i32 noundef 13, i32 noundef 0, i32 noundef 2, ptr noundef @.str, i32 noundef 723)
  store i32 0, ptr %4, align 4
  store i32 1, ptr %10, align 4
  br label %24

16:                                               ; preds = %3
  %17 = load ptr, ptr %5, align 8, !tbaa !10
  %18 = load ptr, ptr %8, align 8, !tbaa !27
  %19 = load ptr, ptr %7, align 8, !tbaa !25
  %20 = call i32 @def_load_bio(ptr noundef %17, ptr noundef %18, ptr noundef %19)
  store i32 %20, ptr %9, align 4, !tbaa !21
  %21 = load ptr, ptr %8, align 8, !tbaa !27
  %22 = call i32 @BIO_free(ptr noundef %21)
  %23 = load i32, ptr %9, align 4, !tbaa !21
  store i32 %23, ptr %4, align 4
  store i32 1, ptr %10, align 4
  br label %24

24:                                               ; preds = %16, %15
  call void @llvm.lifetime.end.p0(i64 4, ptr %9) #8
  call void @llvm.lifetime.end.p0(i64 8, ptr %8) #8
  %25 = load i32, ptr %4, align 4
  ret i32 %25
}