; Function Attrs: nounwind uwtable
define hidden range(i32 0, 2) i32 @NCONF_load(ptr noundef readonly captures(none) %0, ptr noundef %1, ptr noundef captures(address_is_null) %2) local_unnamed_addr #0 {
  %4 = tail call ptr @BIO_new_file(ptr noundef %1, ptr noundef nonnull @.str.1) #12
  %5 = icmp eq ptr %4, null
  br i1 %5, label %6, label %7

6:                                                ; preds = %3
  tail call void @ERR_put_error(i32 noundef 13, i32 noundef 0, i32 noundef 2, ptr noundef nonnull @.str, i32 noundef 723) #12
  br label %10

7:                                                ; preds = %3
  %8 = tail call fastcc i32 @def_load_bio(ptr noundef %0, ptr noundef nonnull %4, ptr noundef %2)
  %9 = tail call i32 @BIO_free(ptr noundef nonnull %4) #12
  br label %10

10:                                               ; preds = %7, %6
  %.0 = phi i32 [ 0, %6 ], [ %8, %7 ]
  ret i32 %.0
}